; Function Attrs: mustprogress uwtable
define hidden void @_ZN4cvc58internal6theory19DecisionStrategyFmf18getAssertedLiteralEv(ptr noalias sret(%"class.cvc5::internal::NodeTemplate") align 8 %agg.result, ptr noundef nonnull align 8 dereferenceable(144) %this) local_unnamed_addr #3 align 2 {
entry:
  %d_data.i = getelementptr inbounds i8, ptr %this, i64 64
  %0 = load i8, ptr %d_data.i, align 8
  %1 = and i8 %0, 1
  %tobool.not = icmp eq i8 %1, 0
  br i1 %tobool.not, label %if.end, label %if.then

if.then:                                          ; preds = %entry
  %d_data.i1 = getelementptr inbounds i8, ptr %this, i64 112
  %2 = load i32, ptr %d_data.i1, align 8
  tail call void @_ZN4cvc58internal6theory19DecisionStrategyFmf10getLiteralEj(ptr sret(%"class.cvc5::internal::NodeTemplate") align 8 %agg.result, ptr noundef nonnull align 8 dereferenceable(144) %this, i32 noundef %2)
  br label %return

if.end:                                           ; preds = %entry
  tail call void @llvm.experimental.noalias.scope.decl(metadata !15)
  %3 = load ptr, ptr @_ZN4cvc58internal12NodeTemplateILb1EE6s_nullE, align 8, !noalias !15
  store ptr %3, ptr %agg.result, align 8, !alias.scope !15
  %bf.load.i.i.i = load i64, ptr %3, align 8, !noalias !15
  %bf.lshr.i.i.i = lshr i64 %bf.load.i.i.i, 40
  %4 = trunc i64 %bf.lshr.i.i.i to i32
  %bf.cast.i.i.i = and i32 %4, 1048575
  %cmp.i.i.i = icmp ult i32 %bf.cast.i.i.i, 1048574
  br i1 %cmp.i.i.i, label %if.then.i.i.i, label %if.else.i.i.i

if.then.i.i.i:                                    ; preds = %if.end
  %bf.value.i.i.i = add i64 %bf.load.i.i.i, 1099511627776
  %bf.shl.i.i.i = and i64 %bf.value.i.i.i, 1152920405095219200
  %bf.clear7.i.i.i = and i64 %bf.load.i.i.i, -1152920405095219201
  %bf.set.i.i.i = or disjoint i64 %bf.shl.i.i.i, %bf.clear7.i.i.i
  store i64 %bf.set.i.i.i, ptr %3, align 8, !noalias !15
  br label %return

if.else.i.i.i:                                    ; preds = %if.end
  %cmp12.i.i.i = icmp eq i32 %bf.cast.i.i.i, 1048574
  br i1 %cmp12.i.i.i, label %if.then13.i.i.i, label %return

if.then13.i.i.i:                                  ; preds = %if.else.i.i.i
  %bf.set23.i.i.i = or i64 %bf.load.i.i.i, 1152920405095219200
  store i64 %bf.set23.i.i.i, ptr %3, align 8, !noalias !15
  tail call void @_ZN4cvc58internal4expr9NodeValue20markRefCountMaxedOutEv(ptr noundef nonnull align 8 dereferenceable(16) %3), !noalias !15
  br label %return

return:                                           ; preds = %if.then13.i.i.i, %if.else.i.i.i, %if.then.i.i.i, %if.then
  ret void
}